target datalayout = "e-m:e-p270:32:32-p271:32:32-p272:64:64-i64:64-i128:128-f80:128-n8:16:32:64-S128"
target triple = "x86_64-pc-linux-gnu"

%struct.jit_State = type { %struct.GCtrace, ptr, ptr, ptr, ptr, ptr, ptr, i32, i32, i32, i8, i8, %struct.IRType1, i8, %struct.FoldState, ptr, i32, i32, i32, i32, i32, i32, i32, [1 x i32], [5 x %union.TValue], [3 x %union.TValue], ptr, i32, i32, i32, i32, ptr, ptr, i32, i32, i8, ptr, i32, i32, i16, [101 x i16], [258 x i32], [15 x i32], [16 x ptr], [64 x %struct.HotPenalty], i32, [16 x %struct.BPropEntry], i32, %struct.ScEvEntry, ptr, i32, i32, i32, ptr, i32, i32, ptr, ptr, ptr, i64, i64, %union.TValue, ptr, i32, i32 }
%struct.GCtrace = type { %struct.GCRef, i8, i8, i16, i32, i32, %struct.GCRef, ptr, i32, i32, ptr, ptr, %struct.GCRef, %struct.MRef, i32, i32, ptr, i32, i16, i16, i16, i16, i16, i16, i16, i8, i8, i8, i8 }
%struct.GCRef = type { i64 }
%struct.MRef = type { i64 }
%struct.IRType1 = type { i8 }
%struct.FoldState = type { %union.IRIns, [2 x %union.IRIns], [2 x %union.IRIns] }
%union.IRIns = type { %struct.GCRef }
%struct.HotPenalty = type { %struct.MRef, i16, i16 }
%struct.BPropEntry = type { i16, i16, i32 }
%struct.ScEvEntry = type { %struct.MRef, i16, i16, i16, i16, %struct.IRType1, i8 }
%union.TValue = type { i64 }
%struct.anon.0 = type { i32, %struct.IRType1, i8, i8, i8 }
%struct.anon = type { i16, i16, i16, i16 }

; Function Attrs: nounwind uwtable
define internal i32 @fold_abc_k(ptr noundef %0) #0 {
  %2 = alloca i32, align 4
  %3 = alloca ptr, align 8
  %4 = alloca i32, align 4
  %5 = alloca i32, align 4
  %6 = alloca ptr, align 8
  %7 = alloca i32, align 4
  %8 = alloca i32, align 4
  store ptr %0, ptr %3, align 8, !tbaa !4
  %9 = load ptr, ptr %3, align 8, !tbaa !4
  %10 = getelementptr inbounds nuw %struct.jit_State, ptr %9, i32 0, i32 14
  %11 = getelementptr inbounds nuw %struct.FoldState, ptr %10, i32 0, i32 1
  %12 = getelementptr inbounds [2 x %union.IRIns], ptr %11, i64 0, i64 0
  %13 = getelementptr inbounds nuw %struct.anon.0, ptr %12, i32 0, i32 1
  %14 = getelementptr inbounds nuw %struct.IRType1, ptr %13, i32 0, i32 0
  %15 = load i8, ptr %14, align 4, !tbaa !29
  %16 = zext i8 %15 to i32
  %17 = and i32 %16, 64
  %18 = icmp ne i32 %17, 0
  br i1 %18, label %19, label %20

19:                                               ; preds = %1
  store i32 0, ptr %2, align 4
  br label %108

20:                                               ; preds = %1
  %21 = load ptr, ptr %3, align 8, !tbaa !4
  %22 = getelementptr inbounds nuw %struct.jit_State, ptr %21, i32 0, i32 7
  %23 = load i32, ptr %22, align 8, !tbaa !9
  %24 = and i32 %23, 8388608
  %25 = icmp ne i32 %24, 0
  %26 = xor i1 %25, true
  %27 = xor i1 %26, true
  %28 = zext i1 %27 to i32
  %29 = sext i32 %28 to i64
  %30 = call i64 @llvm.expect.i64(i64 %29, i64 1)
  %31 = icmp ne i64 %30, 0
  br i1 %31, label %32, label %107

32:                                               ; preds = %20
  call void @llvm.lifetime.start.p0(i64 4, ptr %4) #8
  %33 = load ptr, ptr %3, align 8, !tbaa !4
  %34 = getelementptr inbounds nuw %struct.jit_State, ptr %33, i32 0, i32 40
  %35 = getelementptr inbounds [101 x i16], ptr %34, i64 0, i64 10
  %36 = load i16, ptr %35, align 2, !tbaa !35
  %37 = zext i16 %36 to i32
  store i32 %37, ptr %4, align 4, !tbaa !30
  call void @llvm.lifetime.start.p0(i64 4, ptr %5) #8
  %38 = load ptr, ptr %3, align 8, !tbaa !4
  %39 = getelementptr inbounds nuw %struct.jit_State, ptr %38, i32 0, i32 14
  %40 = getelementptr inbounds nuw %struct.FoldState, ptr %39, i32 0, i32 0
  %41 = getelementptr inbounds nuw %struct.anon, ptr %40, i32 0, i32 0
  %42 = load i16, ptr %41, align 8, !tbaa !29
  %43 = zext i16 %42 to i32
  store i32 %43, ptr %5, align 4, !tbaa !30
  br label %44

44:                                               ; preds = %102, %32
  %45 = load i32, ptr %4, align 4, !tbaa !30
  %46 = load i32, ptr %5, align 4, !tbaa !30
  %47 = icmp ugt i32 %45, %46
  br i1 %47, label %48, label %103

48:                                               ; preds = %44
  call void @llvm.lifetime.start.p0(i64 8, ptr %6) #8
  %49 = load ptr, ptr %3, align 8, !tbaa !4
  %50 = getelementptr inbounds nuw %struct.jit_State, ptr %49, i32 0, i32 0
  %51 = getelementptr inbounds nuw %struct.GCtrace, ptr %50, i32 0, i32 7
  %52 = load ptr, ptr %51, align 8, !tbaa !32
  %53 = load i32, ptr %4, align 4, !tbaa !30
  %54 = zext i32 %53 to i64
  %55 = getelementptr inbounds nuw %union.IRIns, ptr %52, i64 %54
  store ptr %55, ptr %6, align 8, !tbaa !38
  %56 = load ptr, ptr %6, align 8, !tbaa !38
  %57 = getelementptr inbounds nuw %struct.anon, ptr %56, i32 0, i32 0
  %58 = load i16, ptr %57, align 8, !tbaa !29
  %59 = zext i16 %58 to i32
  %60 = load i32, ptr %5, align 4, !tbaa !30
  %61 = icmp eq i32 %59, %60
  br i1 %61, label %62, label %95

62:                                               ; preds = %48
  %63 = load ptr, ptr %6, align 8, !tbaa !38
  %64 = getelementptr inbounds nuw %struct.anon, ptr %63, i32 0, i32 1
  %65 = load i16, ptr %64, align 2, !tbaa !29
  %66 = zext i16 %65 to i32
  %67 = icmp slt i32 %66, 32768
  br i1 %67, label %68, label %95

68:                                               ; preds = %62
  call void @llvm.lifetime.start.p0(i64 4, ptr %7) #8
  %69 = load ptr, ptr %3, align 8, !tbaa !4
  %70 = getelementptr inbounds nuw %struct.jit_State, ptr %69, i32 0, i32 0
  %71 = getelementptr inbounds nuw %struct.GCtrace, ptr %70, i32 0, i32 7
  %72 = load ptr, ptr %71, align 8, !tbaa !32
  %73 = load ptr, ptr %6, align 8, !tbaa !38
  %74 = getelementptr inbounds nuw %struct.anon, ptr %73, i32 0, i32 1
  %75 = load i16, ptr %74, align 2, !tbaa !29
  %76 = zext i16 %75 to i64
  %77 = getelementptr inbounds nuw %union.IRIns, ptr %72, i64 %76
  %78 = load i32, ptr %77, align 8, !tbaa !29
  store i32 %78, ptr %7, align 4, !tbaa !30
  %79 = load ptr, ptr %3, align 8, !tbaa !4
  %80 = getelementptr inbounds nuw %struct.jit_State, ptr %79, i32 0, i32 14
  %81 = getelementptr inbounds nuw %struct.FoldState, ptr %80, i32 0, i32 2
  %82 = getelementptr inbounds [2 x %union.IRIns], ptr %81, i64 0, i64 0
  %83 = load i32, ptr %82, align 8, !tbaa !29
  %84 = load i32, ptr %7, align 4, !tbaa !30
  %85 = icmp ugt i32 %83, %84
  br i1 %85, label %86, label %94

86:                                               ; preds = %68
  %87 = load ptr, ptr %3, align 8, !tbaa !4
  %88 = getelementptr inbounds nuw %struct.jit_State, ptr %87, i32 0, i32 14
  %89 = getelementptr inbounds nuw %struct.FoldState, ptr %88, i32 0, i32 0
  %90 = getelementptr inbounds nuw %struct.anon, ptr %89, i32 0, i32 1
  %91 = load i16, ptr %90, align 2, !tbaa !29
  %92 = load ptr, ptr %6, align 8, !tbaa !38
  %93 = getelementptr inbounds nuw %struct.anon, ptr %92, i32 0, i32 1
  store i16 %91, ptr %93, align 2, !tbaa !29
  br label %94

94:                                               ; preds = %86, %68
  store i32 4, ptr %2, align 4
  store i32 1, ptr %8, align 4
  call void @llvm.lifetime.end.p0(i64 4, ptr %7) #8
  br label %100

95:                                               ; preds = %62, %48
  %96 = load ptr, ptr %6, align 8, !tbaa !38
  %97 = getelementptr inbounds nuw %struct.anon, ptr %96, i32 0, i32 3
  %98 = load i16, ptr %97, align 2, !tbaa !29
  %99 = zext i16 %98 to i32
  store i32 %99, ptr %4, align 4, !tbaa !30
  store i32 0, ptr %8, align 4
  br label %100

100:                                              ; preds = %95, %94
  call void @llvm.lifetime.end.p0(i64 8, ptr %6) #8
  %101 = load i32, ptr %8, align 4
  switch i32 %101, label %106 [
    i32 0, label %102
  ]

102:                                              ; preds = %100
  br label %44, !llvm.loop !85

103:                                              ; preds = %44
  %104 = load ptr, ptr %3, align 8, !tbaa !4
  %105 = call i32 @lj_ir_emit(ptr noundef %104)
  store i32 %105, ptr %2, align 4
  store i32 1, ptr %8, align 4
  br label %106

106:                                              ; preds = %103, %100
  call void @llvm.lifetime.end.p0(i64 4, ptr %5) #8
  call void @llvm.lifetime.end.p0(i64 4, ptr %4) #8
  br label %108

107:                                              ; preds = %20
  store i32 0, ptr %2, align 4
  br label %108

108:                                              ; preds = %107, %106, %19
  %109 = load i32, ptr %2, align 4
  ret i32 %109
}