; Function Attrs: nounwind uwtable
define internal i32 @fold_abc_k(ptr noundef %0) #0 {
  %2 = getelementptr inbounds nuw i8, ptr %0, i64 184
  %3 = getelementptr inbounds nuw i8, ptr %0, i64 196
  %4 = load i8, ptr %3, align 4, !tbaa !28
  %5 = and i8 %4, 64
  %.not = icmp eq i8 %5, 0
  br i1 %.not, label %6, label %.thread

6:                                                ; preds = %1
  %7 = getelementptr inbounds nuw i8, ptr %0, i64 168
  %8 = load i32, ptr %7, align 8, !tbaa !4
  %9 = and i32 %8, 8388608
  %.not24 = icmp eq i32 %9, 0
  br i1 %.not24, label %.thread, label %10, !prof !33

10:                                               ; preds = %6
  %11 = getelementptr inbounds nuw i8, ptr %0, i64 422
  %12 = load i16, ptr %2, align 8, !tbaa !28
  %.021.in30 = load i16, ptr %11, align 2, !tbaa !28
  %13 = icmp ugt i16 %.021.in30, %12
  br i1 %13, label %.lr.ph, label %._crit_edge

.lr.ph:                                           ; preds = %10
  %14 = getelementptr inbounds nuw i8, ptr %0, i64 32
  %15 = load ptr, ptr %14, align 8, !tbaa !30
  br label %16

16:                                               ; preds = %.lr.ph, %36
  %.021.in31 = phi i16 [ %.021.in30, %.lr.ph ], [ %.021.in, %36 ]
  %17 = zext i16 %.021.in31 to i64
  %18 = getelementptr inbounds nuw %union.IRIns, ptr %15, i64 %17
  %19 = load i16, ptr %18, align 8, !tbaa !28
  %20 = icmp eq i16 %19, %12
  br i1 %20, label %21, label %36

21:                                               ; preds = %16
  %22 = getelementptr inbounds nuw i8, ptr %18, i64 2
  %23 = load i16, ptr %22, align 2, !tbaa !28
  %24 = icmp sgt i16 %23, -1
  br i1 %24, label %25, label %36

25:                                               ; preds = %21
  %26 = zext nneg i16 %23 to i64
  %27 = getelementptr inbounds nuw %union.IRIns, ptr %15, i64 %26
  %28 = load i32, ptr %27, align 8, !tbaa !28
  %29 = getelementptr inbounds nuw i8, ptr %0, i64 208
  %30 = load i32, ptr %29, align 8, !tbaa !28
  %31 = icmp ugt i32 %30, %28
  br i1 %31, label %32, label %.thread

32:                                               ; preds = %25
  %33 = getelementptr inbounds nuw i8, ptr %18, i64 2
  %34 = getelementptr inbounds nuw i8, ptr %0, i64 186
  %35 = load i16, ptr %34, align 2, !tbaa !28
  store i16 %35, ptr %33, align 2, !tbaa !28
  br label %.thread

36:                                               ; preds = %16, %21
  %37 = getelementptr inbounds nuw i8, ptr %18, i64 6
  %.021.in = load i16, ptr %37, align 2, !tbaa !28
  %38 = icmp ugt i16 %.021.in, %12
  br i1 %38, label %16, label %._crit_edge, !llvm.loop !79

._crit_edge:                                      ; preds = %36, %10
  %39 = tail call i32 @lj_ir_emit(ptr noundef nonnull %0) #12
  br label %.thread

.thread:                                          ; preds = %25, %32, %6, %._crit_edge, %1
  %.020 = phi i32 [ 0, %1 ], [ %39, %._crit_edge ], [ 0, %6 ], [ 4, %32 ], [ 4, %25 ]
  ret i32 %.020
}